(dp1
Vinfo
p2
Vjoint setup
p3
sVname
p4
VjointSet
p5
sVtags
p6
Vtools
p7
sVsyntax
p8
Vpython
p9
sVcommand
p10
Vfrom deliver import jointSet\u000areload(jointSet)
p11
sVid
p12
S'3a60db17ebed20L'
p13
sVicon
p14
V
s.