(dp0
Vinfo
p1
Vconnection..
p2
sVname
p3
VCNTManager
p4
sVtags
p5
Vtools
p6
sVsyntax
p7
Vpython
p8
sVcommand
p9
Vfrom ui.convert import CNTManager2\u000atry:\u000a    from imp import *\u000aexcept:\u000a    pass\u000areload(CNTManager2)
p10
sVid
p11
V3a60db46167800L
p12
sVicon
p13
V
p14
s.