(dp0
Vinfo
p1
Vjoint setup
p2
sVname
p3
VjointSet
p4
sVtags
p5
Vtools
p6
sVsyntax
p7
Vpython
p8
sVcommand
p9
Vfrom deliver import jointSet\u000atry:\u000a    from imp import *\u000aexcept:\u000a    pass\u000areload(jointSet)
p10
sVid
p11
V3a60db17ebed20L
p12
sVicon
p13
V
p14
s.