(dp1
Vinfo
p2
VMatrix Constraint Tool
p3
sVname
p4
VMCon
p5
sVtags
p6
Vtools
p7
sVsyntax
p8
Vpython
p9
sVcommand
p10
Vfrom ui.deliver import MconTool\u000areload(MconTool)
p11
sVid
p12
S'3a5de60e3c4470L'
p13
sVicon
p14
V
s.
