(dp0
Vinfo
p1
VMRig
p2
sVname
p3
VMRig
p4
sVtags
p5
Vtools
p6
sVsyntax
p7
Vpython
p8
sVcommand
p9
Vfrom ui.convert import mRigTool\u000atry:\u000a    from imp import *\u000aexcept:\u000a    pass\u000areload(mRigTool)
p10
sVid
p11
V3a9f812c1eed80L
p12
sVicon
p13
V
p14
s.