(dp1
Vinfo
p2
VMRig
p3
sVname
p4
VMRig
p5
sVtags
p6
Vtools
p7
sVsyntax
p8
Vpython
p9
sVcommand
p10
Vfrom ui.convert import mRigTool\u000areload(mRigTool)
p11
sVid
p12
S'3a9f812c1eed80L'
p13
sVicon
p14
V
s.
