(dp1
Vinfo
p2
VUn used delete clean up
p3
sVname
p4
VUUSDel
p5
sVtags
p6
Vtools
p7
sVsyntax
p8
Vpython
p9
sVcommand
p10
Vfrom ui.deliver import UUSDel\u000areload(UUSDel)
p11
sVid
p12
S'3a9f80b2bcdc90L'
p13
sVicon
p14
V
s.