(dp1
S'info'
p2
VCreate a flat pin-shaped controller
p3
sS'name'
p4
VFlat Pin Controller
p5
sS'tags'
p6
Vcontroller,rigging
p7
sS'syntax'
p8
S'python'
p9
sS'command'
p10
V#Import Maya modules\u000aimport maya.cmds as cmds\u000aimport maya.mel as mel\u000a\u000aselection = cmds.ls(sl=True)\u000a\u000acontrollers = []\u000a\u000aif len(selection) == 0: selection = [None]\u000a\u000afor object in selection:\u000a    controller = cmds.curve(d=1, p=[(0.00187986,15.995738,0),(0.00187986,15.983426,0.156434),(0.00187986,15.946795,0.309017),(0.00187986,15.886745,0.45399),(0.00187986,15.804755,0.587785),(0.00187986,15.702845,0.707107),(0.00187986,15.583523,0.809017),(0.00187986,15.449728,0.891007),(0.00187986,15.304755,0.951057),(0.00187986,15.152172,0.987689),(0.00187986,14.995738,1),(0.00187986,14.839303,0.987689),(0.00187986,14.686721,0.951057),(0.00187986,14.541747,0.891007),(0.00187986,14.407952,0.809017),(0.00187986,14.288631,0.707107),(0.00187986,14.186721,0.587785),(0.00187986,14.104731,0.453991),(0.00187986,14.044681,0.309017),(0.00187986,14.008049,0.156434),(0.00187986,13.995738,0),(0.00187986,14.008049,-0.156434),(0.00187986,14.04468,-0.309017),(0.00187986,14.104731,-0.453991),(0.00187986,14.18672,-0.587785),(0.00187986,14.28863,-0.707107),(0.00187986,14.407952,-0.809017),(0.00187986,14.541747,-0.891007),(0.00187986,14.68672,-0.951057),(0.00187986,14.839303,-0.987689),(0.00187986,14.995737,-1.000001),(0.00187986,15.152172,-0.987689),(0.00187986,15.304755,-0.951057),(0.00187986,15.449728,-0.891007),(0.00187986,15.583523,-0.809018),(0.00187986,15.702845,-0.707107),(0.00187986,15.804755,-0.587786),(0.00187986,15.886745,-0.453991),(0.00187986,15.946795,-0.309017),(0.00187986,15.983426,-0.156435),(0.00187986,15.995738,0),(0.00187986,14.991886,0.000610029),(0.00187986,14.995738,1),(0.00187986,14.995738,0),(0.00187986,14.995737,-1.000001),(0.00187986,14.996,0.000482795),(0.00187986,13.995738,0),(0,0,0)], n=("pin_CTRL"))\u000a    cmds.xform(controller,s=(0.1,0.1,0.1))\u000a    mel.eval('FreezeTransformations')\u000a    if object != None:\u000a        parentConstraint = cmds.parentConstraint(object,controller)\u000a        cmds.delete(parentConstraint)\u000a    controllers.append(controller)\u000a    \u000acmds.select(controllers)\u000a
p11
sS'id'
p12
S'3483dd51dca5a0L'
p13
sS'icon'
p14
VcontrollerFlatPin.png
p15
s.n.png
p15
s.
