(dp1
S'info'
p2
VCreate a half sphere Controller
p3
sS'name'
p4
VHalf Sphere Controller
p5
sS'tags'
p6
Vhalf, sphere, controller
p7
sS'syntax'
p8
S'python'
p9
sS'command'
p10
V#Import Maya modules\u000aimport maya.cmds as cmds\u000aimport maya.mel as mel\u000a\u000aselection = cmds.ls(sl=True)\u000a\u000acontrollers = []\u000a\u000aif len(selection) == 0: selection = [None]\u000a\u000afor object in selection:\u000a    controller = cmds.curve(d=1, p=[(2.23517e-07,0,-1.000001),(-0.156434,0,-0.987689),(-0.309017,0,-0.951057),(-0.453991,0,-0.891007),(-0.587785,0,-0.809018),(-0.707107,0,-0.707107),(-0.809017,0,-0.587786),(-0.891007,0,-0.453991),(-0.951057,0,-0.309017),(-0.987689,0,-0.156435),(-1,0,-1.63913e-07),(-0.996918,0.0784587,-1.63407e-07),(-0.987689,0.156434,-1.61895e-07),(-0.97237,0.233445,-1.59384e-07),(-0.951057,0.309017,-1.5589e-07),(-0.92388,0.382683,-1.51436e-07),(-0.891007,0.45399,-1.46047e-07),(-0.852641,0.522498,-1.39759e-07),(-0.809017,0.587785,-1.32608e-07),(-0.760406,0.649448,-1.2464e-07),(-0.707107,0.707107,-1.15904e-07),(-0.649448,0.760406,-1.06453e-07),(-0.587785,0.809017,-9.63455e-08),(-0.522499,0.85264,-8.56442e-08),(-0.453991,0.891007,-7.44148e-08),(-0.382684,0.92388,-6.27267e-08),(-0.309017,0.951057,0),(-0.233445,0.97237,0),(-0.156435,0.987688,0),(-0.0784591,0.996917,0),(0,1,0),(0.0784591,0.996917,0),(0.156434,0.987688,0),(0.233445,0.97237,0),(0.309017,0.951057,0),(0.382683,0.92388,0),(0.453991,0.891007,0),(0.522499,0.85264,0),(0.587785,0.809017,0),(0.649448,0.760406,0),(0.707107,0.707107,0),(0.760406,0.649448,0),(0.809017,0.587785,0),(0.85264,0.522498,0),(0.891007,0.45399,0),(0.92388,0.382683,0),(0.951057,0.309017,0),(0.97237,0.233445,0),(0.987688,0.156434,0),(0.996917,0.0784587,0),(1,0,0),(0.987689,0,-0.156434),(0.951057,0,-0.309017),(0.891007,0,-0.453991),(0.809018,0,-0.587785),(0.707107,0,-0.707107),(0.587786,0,-0.809017),(0.453991,0,-0.891007),(0.309017,0,-0.951057),(0.156435,0,-0.987689),(2.23517e-07,0,-1.000001),(2.22828e-07,0.0784587,-0.996918),(2.20766e-07,0.156434,-0.987689),(2.17342e-07,0.233445,-0.972371),(2.12578e-07,0.309017,-0.951057),(2.06503e-07,0.382683,-0.92388),(1.99156e-07,0.45399,-0.891007),(1.9058e-07,0.522498,-0.852641),(1.80829e-07,0.587785,-0.809018),(1.69964e-07,0.649448,-0.760406),(1.58051e-07,0.707107,-0.707107),(1.45163e-07,0.760406,-0.649448),(1.3138e-07,0.809017,-0.587786),(1.16788e-07,0.85264,-0.522499),(1.01475e-07,0.891007,-0.453991),(8.55364e-08,0.92388,-0.382684),(6.90707e-08,0.951057,-0.309017),(5.21791e-08,0.97237,-0.233446),(3.49658e-08,0.987688,-0.156435),(1.7537e-08,0.996917,-0.0784591),(0,1,0),(-8.18392e-09,0.996917,0.0784591),(-1.63174e-08,0.987688,0.156435),(-2.43502e-08,0.97237,0.233445),(-3.2233e-08,0.951057,0.309017),(-3.9917e-08,0.92388,0.382684),(-4.73549e-08,0.891007,0.453991),(-5.45008e-08,0.85264,0.522499),(-6.13108e-08,0.809017,0.587785),(-6.77427e-08,0.760406,0.649448),(-7.3757e-08,0.707107,0.707107),(-7.93165e-08,0.649448,0.760406),(-8.43871e-08,0.587785,0.809017),(-8.89373e-08,0.522498,0.85264),(-9.29392e-08,0.45399,0.891007),(-9.63682e-08,0.382683,0.92388),(-9.92029e-08,0.309017,0.951057),(-1.01426e-07,0.233445,0.97237),(-1.03024e-07,0.156434,0.987689),(-1.03987e-07,0.0784587,0.996918),(-1.04308e-07,0,1),(-0.156435,0,0.987689),(-0.309017,0,0.951057),(-0.453991,0,0.891007),(-0.587786,0,0.809017),(-0.707107,0,0.707107),(-0.809017,0,0.587785),(-0.891007,0,0.45399),(-0.951057,0,0.309017),(-0.987689,0,0.156434),(-1,0,-1.63913e-07),(-0.987689,0,0.156434),(-0.951057,0,0.309017),(-0.891007,0,0.45399),(-0.809017,0,0.587785),(-0.707107,0,0.707107),(-0.587786,0,0.809017),(-0.453991,0,0.891007),(-0.309017,0,0.951057),(-0.156435,0,0.987689),(-1.04308e-07,0,1),(0.156434,0,0.987689),(0.309017,0,0.951057),(0.453991,0,0.891007),(0.587785,0,0.809017),(0.707107,0,0.707107),(0.809017,0,0.587785),(0.891007,0,0.453991),(0.951057,0,0.309017),(0.987688,0,0.156434),(1,0,0)], n=("halfSphere_CTRL"))\u000a    if object != None:\u000a        parentConstraint = cmds.parentConstraint(object,controller)\u000a        cmds.delete(parentConstraint)\u000a\u000a    controllers.append(controller)\u000a    \u000acmds.select(controllers)
p11
sS'id'
p12
S'356e0b9c7104c6'
p13
sS'icon'
p14
VhalfSphereController.png
p15
s.
